; Function Attrs: mustprogress nounwind uwtable
define hidden void @_ZN4cvc58internal4prop16MinisatSatSolverD0Ev(ptr noundef nonnull align 8 dereferenceable(168) %this) unnamed_addr #5 align 2 personality ptr @__gxx_personality_v0 {
entry:
  store ptr getelementptr inbounds ({ [31 x ptr], [4 x ptr] }, ptr @_ZTVN4cvc58internal4prop16MinisatSatSolverE, i64 0, i32 0, i64 2), ptr %this, align 8
  %add.ptr.i = getelementptr inbounds i8, ptr %this, i64 8
  store ptr getelementptr inbounds ({ [31 x ptr], [4 x ptr] }, ptr @_ZTVN4cvc58internal4prop16MinisatSatSolverE, i64 0, i32 1, i64 2), ptr %add.ptr.i, align 8
  %d_statistics.i = getelementptr inbounds i8, ptr %this, i64 96
  tail call void @_ZN4cvc58internal4prop16MinisatSatSolver10Statistics6deinitEv(ptr noundef nonnull align 8 dereferenceable(72) %d_statistics.i)
  %d_minisat.i = getelementptr inbounds i8, ptr %this, i64 24
  %0 = load ptr, ptr %d_minisat.i, align 8
  %isnull.i = icmp eq ptr %0, null
  br i1 %isnull.i, label %delete.end.i, label %delete.notnull.i

delete.notnull.i:                                 ; preds = %entry
  %vtable.i = load ptr, ptr %0, align 8
  %vfn.i = getelementptr inbounds i8, ptr %vtable.i, i64 8
  %1 = load ptr, ptr %vfn.i, align 8
  tail call void %1(ptr noundef nonnull align 8 dereferenceable(1108) %0) #26
  br label %delete.end.i

delete.end.i:                                     ; preds = %delete.notnull.i, %entry
  tail call void @_ZN4cvc58internal4prop16MinisatSatSolver10StatisticsD2Ev(ptr noundef nonnull align 8 dereferenceable(72) %d_statistics.i) #26
  %d_assumptions.i = getelementptr inbounds i8, ptr %this, i64 40
  %_M_before_begin.i.i.i.i.i = getelementptr inbounds i8, ptr %this, i64 56
  %2 = load ptr, ptr %_M_before_begin.i.i.i.i.i, align 8
  %tobool.not3.i.i.i.i.i = icmp eq ptr %2, null
  br i1 %tobool.not3.i.i.i.i.i, label %_ZNSt10_HashtableIN4cvc58internal4prop10SatLiteralES3_SaIS3_ENSt8__detail9_IdentityESt8equal_toIS3_ENS2_22SatLiteralHashFunctionENS5_18_Mod_range_hashingENS5_20_Default_ranged_hashENS5_20_Prime_rehash_policyENS5_17_Hashtable_traitsILb1ELb1ELb1EEEE5clearEv.exit.i.i.i, label %while.body.i.i.i.i.i

while.body.i.i.i.i.i:                             ; preds = %delete.end.i, %while.body.i.i.i.i.i
  %__n.addr.04.i.i.i.i.i = phi ptr [ %3, %while.body.i.i.i.i.i ], [ %2, %delete.end.i ]
  %3 = load ptr, ptr %__n.addr.04.i.i.i.i.i, align 8
  tail call void @_ZdlPv(ptr noundef nonnull %__n.addr.04.i.i.i.i.i) #27
  %tobool.not.i.i.i.i.i = icmp eq ptr %3, null
  br i1 %tobool.not.i.i.i.i.i, label %_ZNSt10_HashtableIN4cvc58internal4prop10SatLiteralES3_SaIS3_ENSt8__detail9_IdentityESt8equal_toIS3_ENS2_22SatLiteralHashFunctionENS5_18_Mod_range_hashingENS5_20_Default_ranged_hashENS5_20_Prime_rehash_policyENS5_17_Hashtable_traitsILb1ELb1ELb1EEEE5clearEv.exit.i.i.i, label %while.body.i.i.i.i.i, !llvm.loop !4

_ZNSt10_HashtableIN4cvc58internal4prop10SatLiteralES3_SaIS3_ENSt8__detail9_IdentityESt8equal_toIS3_ENS2_22SatLiteralHashFunctionENS5_18_Mod_range_hashingENS5_20_Default_ranged_hashENS5_20_Prime_rehash_policyENS5_17_Hashtable_traitsILb1ELb1ELb1EEEE5clearEv.exit.i.i.i: ; preds = %while.body.i.i.i.i.i, %delete.end.i
  %4 = load ptr, ptr %d_assumptions.i, align 8
  %_M_bucket_count.i.i.i.i = getelementptr inbounds i8, ptr %this, i64 48
  %5 = load i64, ptr %_M_bucket_count.i.i.i.i, align 8
  %mul.i.i.i.i = shl i64 %5, 3
  tail call void @llvm.memset.p0.i64(ptr align 8 %4, i8 0, i64 %mul.i.i.i.i, i1 false)
  tail call void @llvm.memset.p0.i64(ptr noundef nonnull align 8 dereferenceable(16) %_M_before_begin.i.i.i.i.i, i8 0, i64 16, i1 false)
  %6 = load ptr, ptr %d_assumptions.i, align 8
  %_M_single_bucket.i.i.i.i.i.i = getelementptr inbounds i8, ptr %this, i64 88
  %cmp.i.i.i.i.i.i = icmp eq ptr %_M_single_bucket.i.i.i.i.i.i, %6
  br i1 %cmp.i.i.i.i.i.i, label %_ZN4cvc58internal4prop16MinisatSatSolverD2Ev.exit, label %if.end.i.i.i.i.i

if.end.i.i.i.i.i:                                 ; preds = %_ZNSt10_HashtableIN4cvc58internal4prop10SatLiteralES3_SaIS3_ENSt8__detail9_IdentityESt8equal_toIS3_ENS2_22SatLiteralHashFunctionENS5_18_Mod_range_hashingENS5_20_Default_ranged_hashENS5_20_Prime_rehash_policyENS5_17_Hashtable_traitsILb1ELb1ELb1EEEE5clearEv.exit.i.i.i
  tail call void @_ZdlPv(ptr noundef %6) #27
  br label %_ZN4cvc58internal4prop16MinisatSatSolverD2Ev.exit

_ZN4cvc58internal4prop16MinisatSatSolverD2Ev.exit: ; preds = %_ZNSt10_HashtableIN4cvc58internal4prop10SatLiteralES3_SaIS3_ENSt8__detail9_IdentityESt8equal_toIS3_ENS2_22SatLiteralHashFunctionENS5_18_Mod_range_hashingENS5_20_Default_ranged_hashENS5_20_Prime_rehash_policyENS5_17_Hashtable_traitsILb1ELb1ELb1EEEE5clearEv.exit.i.i.i, %if.end.i.i.i.i.i
  tail call void @_ZdlPv(ptr noundef nonnull %this) #27
  ret void
}